; Function Attrs: nounwind uwtable
define noundef ptr @N_VCloneVectorArray(i32 noundef %0, ptr noundef %1) local_unnamed_addr #0 {
  %3 = icmp slt i32 %0, 1
  br i1 %3, label %.loopexit, label %4

4:                                                ; preds = %2
  %5 = zext nneg i32 %0 to i64
  %6 = shl nuw nsw i64 %5, 3
  %7 = tail call noalias ptr @malloc(i64 noundef %6) #4
  %8 = icmp eq ptr %7, null
  br i1 %8, label %.loopexit, label %.lr.ph

.lr.ph:                                           ; preds = %4
  %9 = getelementptr inbounds nuw i8, ptr %1, i64 8
  br label %10

10:                                               ; preds = %.lr.ph, %26
  %indvars.iv = phi i64 [ 0, %.lr.ph ], [ %indvars.iv.next, %26 ]
  %11 = load ptr, ptr %9, align 8, !tbaa !3
  %12 = load ptr, ptr %11, align 8, !tbaa !9
  %13 = tail call ptr %12(ptr noundef %1) #3
  %14 = getelementptr inbounds nuw ptr, ptr %7, i64 %indvars.iv
  store ptr %13, ptr %14, align 8, !tbaa !35
  %15 = icmp eq ptr %13, null
  br i1 %15, label %.preheader.i, label %26

.preheader.i:                                     ; preds = %10
  %16 = icmp samesign ugt i64 %indvars.iv, 1
  br i1 %16, label %.lr.ph.preheader.i, label %N_VDestroyVectorArray.exit

.lr.ph.preheader.i:                               ; preds = %.preheader.i
  %17 = add nuw i64 %indvars.iv, 4294967295
  %wide.trip.count.i = and i64 %17, 4294967295
  br label %.lr.ph.i

.lr.ph.i:                                         ; preds = %N_VDestroy.exit.i, %.lr.ph.preheader.i
  %indvars.iv.i = phi i64 [ 0, %.lr.ph.preheader.i ], [ %indvars.iv.next.i, %N_VDestroy.exit.i ]
  %18 = getelementptr inbounds nuw ptr, ptr %7, i64 %indvars.iv.i
  %19 = load ptr, ptr %18, align 8, !tbaa !35
  %20 = icmp eq ptr %19, null
  br i1 %20, label %N_VDestroy.exit.i, label %21

21:                                               ; preds = %.lr.ph.i
  %22 = getelementptr inbounds nuw i8, ptr %19, i64 8
  %23 = load ptr, ptr %22, align 8, !tbaa !3
  %24 = getelementptr inbounds nuw i8, ptr %23, i64 16
  %25 = load ptr, ptr %24, align 8, !tbaa !12
  tail call void %25(ptr noundef nonnull %19) #3
  br label %N_VDestroy.exit.i

N_VDestroy.exit.i:                                ; preds = %21, %.lr.ph.i
  %indvars.iv.next.i = add nuw nsw i64 %indvars.iv.i, 1
  %exitcond.not.i = icmp eq i64 %indvars.iv.next.i, %wide.trip.count.i
  br i1 %exitcond.not.i, label %N_VDestroyVectorArray.exit, label %.lr.ph.i, !llvm.loop !37

N_VDestroyVectorArray.exit:                       ; preds = %N_VDestroy.exit.i, %.preheader.i
  tail call void @free(ptr noundef nonnull %7) #3
  br label %.loopexit

26:                                               ; preds = %10
  %indvars.iv.next = add nuw nsw i64 %indvars.iv, 1
  %exitcond.not = icmp eq i64 %indvars.iv.next, %5
  br i1 %exitcond.not, label %.loopexit, label %10, !llvm.loop !40

.loopexit:                                        ; preds = %26, %4, %2, %N_VDestroyVectorArray.exit
  %.014 = phi ptr [ null, %N_VDestroyVectorArray.exit ], [ null, %2 ], [ null, %4 ], [ %7, %26 ]
  ret ptr %.014
}